target datalayout = "e-m:e-p270:32:32-p271:32:32-p272:64:64-i64:64-i128:128-f80:128-n8:16:32:64-S128"
target triple = "x86_64-pc-linux-gnu"

%class.QString = type { %struct.QArrayDataPointer }
%struct.QArrayDataPointer = type { ptr, ptr, i64 }
%class.QWidget = type { %class.QObject, %class.QPaintDevice.base, ptr }
%class.QObject = type { ptr, %class.QScopedPointer }
%class.QScopedPointer = type { ptr }
%class.QPaintDevice.base = type <{ ptr, i16 }>
%class.QFrame = type { %class.QWidget }
%class.MainWindow = type { %class.QMainWindow, %class.CaptureFile, %class.QList.2, ptr, ptr, %class.QSplitter, %class.QSplitter, %class.QWidget, %class.QList.6, ptr, ptr, ptr, ptr, ptr, ptr, ptr, i8, %class.QList.10 }
%class.QMainWindow = type { %class.QWidget }
%class.CaptureFile = type { %class.QObject, ptr, %class.QString }
%class.QList.2 = type { %struct.QArrayDataPointer.5 }
%struct.QArrayDataPointer.5 = type { ptr, ptr, i64 }
%class.QSplitter = type { %class.QFrame }
%class.QList.6 = type { %struct.QArrayDataPointer.9 }
%struct.QArrayDataPointer.9 = type { ptr, ptr, i64 }
%class.QList.10 = type { %struct.QArrayDataPointer.13 }
%struct.QArrayDataPointer.13 = type { ptr, ptr, i64 }
%class.QAtomicInt = type { %class.QAtomicInteger }
%class.QAtomicInteger = type { %class.QBasicAtomicInteger }
%class.QBasicAtomicInteger = type { %"struct.std::atomic" }
%"struct.std::atomic" = type { %"struct.std::__atomic_base" }
%"struct.std::__atomic_base" = type { i32 }
%class.anon.258 = type { ptr }
%"class.QtPrivate::QSlotObjectBase" = type { %class.QAtomicInt, ptr }
%"struct.QtPrivate::ApplyReturnValue" = type { ptr }
%"class.QtPrivate::QFunctorSlotObject.717" = type { %"class.QtPrivate::QSlotObjectBase", %class.anon.258 }

@.str.131 = private unnamed_addr constant [10 x i8] c"bacapp_ip\00", align 1

; Function Attrs: mustprogress null_pointer_is_valid sspstrong uwtable
define void @_ZN19WiresharkMainWindow24openStatisticsTreeDialogEPKc(ptr noundef align 8 dereferenceable_or_null(560) %0, ptr noundef %1) #0 align 2 personality ptr @__gxx_personality_v0 {
  %3 = alloca ptr, align 8
  %4 = alloca ptr, align 8
  %5 = alloca ptr, align 8
  %6 = alloca ptr, align 8
  %7 = alloca i32, align 4
  store ptr %0, ptr %3, align 8
  store ptr %1, ptr %4, align 8
  %8 = load ptr, ptr %3, align 8
  call void @llvm.lifetime.start.p0(i64 8, ptr %5) #24
  %9 = call noalias noundef ptr @_Znwm(i64 noundef 256) #26
  %10 = getelementptr inbounds nuw %class.MainWindow, ptr %8, i32 0, i32 1
  %11 = load ptr, ptr %4, align 8
  invoke void @_ZN15StatsTreeDialogC1ER7QWidgetR11CaptureFilePKc(ptr noundef align 8 dereferenceable_or_null(256) %9, ptr noundef align 8 dereferenceable(40) %8, ptr noundef align 8 dereferenceable(48) %10, ptr noundef %11)
          to label %12 unwind label %14

12:                                               ; preds = %2
  store ptr %9, ptr %5, align 8
  %13 = load ptr, ptr %5, align 8
  call void @_ZN7QWidget4showEv(ptr noundef align 8 dereferenceable_or_null(40) %13)
  call void @llvm.lifetime.end.p0(i64 8, ptr %5) #24
  ret void

14:                                               ; preds = %2
  %15 = landingpad { ptr, i32 }
          cleanup
  %16 = extractvalue { ptr, i32 } %15, 0
  store ptr %16, ptr %6, align 8
  %17 = extractvalue { ptr, i32 } %15, 1
  store i32 %17, ptr %7, align 4
  call void @_ZdlPvm(ptr noundef %9, i64 noundef 256) #27
  call void @llvm.lifetime.end.p0(i64 8, ptr %5) #24
  br label %18

18:                                               ; preds = %14
  %19 = load ptr, ptr %6, align 8
  %20 = load i32, ptr %7, align 4
  %21 = insertvalue { ptr, i32 } poison, ptr %19, 0
  %22 = insertvalue { ptr, i32 } %21, i32 %20, 1
  resume { ptr, i32 } %22
}

; Function Attrs: mustprogress nounwind null_pointer_is_valid sspstrong uwtable
define linkonce_odr void @_ZN9QtPrivate16ApplyReturnValueIvEC2EPv(ptr noundef align 8 dereferenceable_or_null(8) %0, ptr noundef %1) unnamed_addr #7 comdat align 2 {
  %3 = alloca ptr, align 8
  %4 = alloca ptr, align 8
  store ptr %0, ptr %3, align 8
  store ptr %1, ptr %4, align 8
  %5 = load ptr, ptr %3, align 8
  %6 = getelementptr inbounds nuw %"struct.QtPrivate::ApplyReturnValue", ptr %5, i32 0, i32 0
  %7 = load ptr, ptr %4, align 8
  store ptr %7, ptr %6, align 8
  ret void
}

; Function Attrs: inlinehint mustprogress null_pointer_is_valid sspstrong uwtable
define internal void @"_ZZN19WiresharkMainWindow28connectStatisticsMenuActionsEvENK4$_33clEv"(ptr noundef align 8 dereferenceable_or_null(8) %0) #2 align 2 {
  %2 = alloca ptr, align 8
  store ptr %0, ptr %2, align 8
  %3 = load ptr, ptr %2, align 8
  %4 = getelementptr inbounds nuw %class.anon.258, ptr %3, i32 0, i32 0
  %5 = load ptr, ptr %4, align 8
  call void @_ZN19WiresharkMainWindow24openStatisticsTreeDialogEPKc(ptr noundef align 8 dereferenceable_or_null(560) %5, ptr noundef @.str.131)
  ret void
}

; Function Attrs: mustprogress null_pointer_is_valid sspstrong uwtable
define internal void @"_ZN9QtPrivate11FunctorCallINS_11IndexesListIJEEENS_4ListIJEEEvZN19WiresharkMainWindow28connectStatisticsMenuActionsEvE4$_33E4callERS6_PPv"(ptr noundef align 8 dereferenceable(8) %0, ptr noundef %1) #0 align 2 {
  %3 = alloca ptr, align 8
  %4 = alloca ptr, align 8
  %5 = alloca %"struct.QtPrivate::ApplyReturnValue", align 8
  store ptr %0, ptr %3, align 8
  store ptr %1, ptr %4, align 8
  %6 = load ptr, ptr %3, align 8
  call void @"_ZZN19WiresharkMainWindow28connectStatisticsMenuActionsEvENK4$_33clEv"(ptr noundef align 8 dereferenceable_or_null(8) %6)
  %7 = load ptr, ptr %4, align 8
  %8 = getelementptr ptr, ptr %7, i64 0
  %9 = load ptr, ptr %8, align 8
  call void @_ZN9QtPrivate16ApplyReturnValueIvEC2EPv(ptr noundef align 8 dereferenceable_or_null(8) %5, ptr noundef %9)
  ret void
}

; Function Attrs: mustprogress null_pointer_is_valid sspstrong uwtable
define internal void @"_ZN9QtPrivate7FunctorIZN19WiresharkMainWindow28connectStatisticsMenuActionsEvE4$_33Li0EE4callINS_4ListIJEEEvEEvRS2_PvPS8_"(ptr noundef align 8 dereferenceable(8) %0, ptr noundef %1, ptr noundef %2) #0 align 2 {
  %4 = alloca ptr, align 8
  %5 = alloca ptr, align 8
  %6 = alloca ptr, align 8
  store ptr %0, ptr %4, align 8
  store ptr %1, ptr %5, align 8
  store ptr %2, ptr %6, align 8
  %7 = load ptr, ptr %4, align 8
  %8 = load ptr, ptr %6, align 8
  call void @"_ZN9QtPrivate11FunctorCallINS_11IndexesListIJEEENS_4ListIJEEEvZN19WiresharkMainWindow28connectStatisticsMenuActionsEvE4$_33E4callERS6_PPv"(ptr noundef align 8 dereferenceable(8) %7, ptr noundef %8)
  ret void
}

; Function Attrs: mustprogress nounwind null_pointer_is_valid sspstrong uwtable
define linkonce_odr void @_ZN9QtPrivate15QSlotObjectBaseD2Ev(ptr noundef align 8 dereferenceable_or_null(16) %0) unnamed_addr #7 comdat align 2 {
  %2 = alloca ptr, align 8
  store ptr %0, ptr %2, align 8
  ret void
}

; Function Attrs: mustprogress null_pointer_is_valid sspstrong uwtable
define internal void @"_ZN9QtPrivate18QFunctorSlotObjectIZN19WiresharkMainWindow28connectStatisticsMenuActionsEvE4$_33Li0ENS_4ListIJEEEvE4implEiPNS_15QSlotObjectBaseEP7QObjectPPvPb"(i32 noundef %0, ptr noundef %1, ptr noundef %2, ptr noundef %3, ptr noundef %4) #0 align 2 {
  %6 = alloca i32, align 4
  %7 = alloca ptr, align 8
  %8 = alloca ptr, align 8
  %9 = alloca ptr, align 8
  %10 = alloca ptr, align 8
  store i32 %0, ptr %6, align 4
  store ptr %1, ptr %7, align 8
  store ptr %2, ptr %8, align 8
  store ptr %3, ptr %9, align 8
  store ptr %4, ptr %10, align 8
  %11 = load i32, ptr %6, align 4
  switch i32 %11, label %23 [
    i32 0, label %12
    i32 1, label %17
    i32 2, label %22
    i32 3, label %22
  ]

12:                                               ; preds = %5
  %13 = load ptr, ptr %7, align 8
  %14 = icmp eq ptr %13, null
  br i1 %14, label %16, label %15

15:                                               ; preds = %12
  call void @_ZN9QtPrivate15QSlotObjectBaseD2Ev(ptr noundef align 8 dereferenceable_or_null(24) %13) #24
  call void @_ZdlPvm(ptr noundef %13, i64 noundef 24) #27
  br label %16

16:                                               ; preds = %15, %12
  br label %23

17:                                               ; preds = %5
  %18 = load ptr, ptr %7, align 8
  %19 = getelementptr inbounds nuw %"class.QtPrivate::QFunctorSlotObject.717", ptr %18, i32 0, i32 1
  %20 = load ptr, ptr %8, align 8
  %21 = load ptr, ptr %9, align 8
  call void @"_ZN9QtPrivate7FunctorIZN19WiresharkMainWindow28connectStatisticsMenuActionsEvE4$_33Li0EE4callINS_4ListIJEEEvEEvRS2_PvPS8_"(ptr noundef align 8 dereferenceable(8) %19, ptr noundef %20, ptr noundef %21)
  br label %23

22:                                               ; preds = %5, %5
  br label %23

23:                                               ; preds = %22, %5, %17, %16
  ret void
}